target datalayout = "e-m:e-p270:32:32-p271:32:32-p272:64:64-i64:64-i128:128-f80:128-n8:16:32:64-S128"
target triple = "x86_64-pc-linux-gnu"

%"class.(anonymous namespace)::itanium_demangle::Node" = type <{ ptr, i8, i16, [5 x i8] }>
%"class.(anonymous namespace)::itanium_demangle::OutputBuffer" = type <{ ptr, ptr, i64, i64, i32, i32, i32, [4 x i8] }>
%"class.(anonymous namespace)::itanium_demangle::NodeArray" = type { ptr, i64 }
%"class.(anonymous namespace)::itanium_demangle::Node.base" = type <{ ptr, i8, i16 }>
%"class.(anonymous namespace)::itanium_demangle::ConversionExpr" = type { %"class.(anonymous namespace)::itanium_demangle::Node.base", ptr, %"class.(anonymous namespace)::itanium_demangle::NodeArray" }

; Function Attrs: mustprogress nounwind uwtable
define internal void @_ZN12_GLOBAL__N_116itanium_demangle12OutputBuffer4growEm(ptr noundef nonnull align 8 dereferenceable(44) %0, i64 noundef %1) #6 align 2 {
  %3 = alloca ptr, align 8
  %4 = alloca i64, align 8
  %5 = alloca i64, align 8
  store ptr %0, ptr %3, align 8, !tbaa !226
  store i64 %1, ptr %4, align 8, !tbaa !203
  %6 = load ptr, ptr %3, align 8
  call void @llvm.lifetime.start.p0(i64 8, ptr %5) #19
  %7 = load i64, ptr %4, align 8, !tbaa !203
  %8 = getelementptr inbounds nuw %"class.(anonymous namespace)::itanium_demangle::OutputBuffer", ptr %6, i32 0, i32 2
  %9 = load i64, ptr %8, align 8, !tbaa !237
  %10 = add i64 %7, %9
  store i64 %10, ptr %5, align 8, !tbaa !203
  %11 = load i64, ptr %5, align 8, !tbaa !203
  %12 = getelementptr inbounds nuw %"class.(anonymous namespace)::itanium_demangle::OutputBuffer", ptr %6, i32 0, i32 3
  %13 = load i64, ptr %12, align 8, !tbaa !272
  %14 = icmp ugt i64 %11, %13
  br i1 %14, label %15, label %40

15:                                               ; preds = %2
  %16 = load i64, ptr %5, align 8, !tbaa !203
  %17 = add i64 %16, 992
  store i64 %17, ptr %5, align 8, !tbaa !203
  %18 = getelementptr inbounds nuw %"class.(anonymous namespace)::itanium_demangle::OutputBuffer", ptr %6, i32 0, i32 3
  %19 = load i64, ptr %18, align 8, !tbaa !272
  %20 = mul i64 %19, 2
  store i64 %20, ptr %18, align 8, !tbaa !272
  %21 = getelementptr inbounds nuw %"class.(anonymous namespace)::itanium_demangle::OutputBuffer", ptr %6, i32 0, i32 3
  %22 = load i64, ptr %21, align 8, !tbaa !272
  %23 = load i64, ptr %5, align 8, !tbaa !203
  %24 = icmp ult i64 %22, %23
  br i1 %24, label %25, label %28

25:                                               ; preds = %15
  %26 = load i64, ptr %5, align 8, !tbaa !203
  %27 = getelementptr inbounds nuw %"class.(anonymous namespace)::itanium_demangle::OutputBuffer", ptr %6, i32 0, i32 3
  store i64 %26, ptr %27, align 8, !tbaa !272
  br label %28

28:                                               ; preds = %25, %15
  %29 = getelementptr inbounds nuw %"class.(anonymous namespace)::itanium_demangle::OutputBuffer", ptr %6, i32 0, i32 1
  %30 = load ptr, ptr %29, align 8, !tbaa !235
  %31 = getelementptr inbounds nuw %"class.(anonymous namespace)::itanium_demangle::OutputBuffer", ptr %6, i32 0, i32 3
  %32 = load i64, ptr %31, align 8, !tbaa !272
  %33 = call ptr @realloc(ptr noundef %30, i64 noundef %32) #24
  %34 = getelementptr inbounds nuw %"class.(anonymous namespace)::itanium_demangle::OutputBuffer", ptr %6, i32 0, i32 1
  store ptr %33, ptr %34, align 8, !tbaa !235
  %35 = getelementptr inbounds nuw %"class.(anonymous namespace)::itanium_demangle::OutputBuffer", ptr %6, i32 0, i32 1
  %36 = load ptr, ptr %35, align 8, !tbaa !235
  %37 = icmp eq ptr %36, null
  br i1 %37, label %38, label %39

38:                                               ; preds = %28
  call void @abort() #22
  unreachable

39:                                               ; preds = %28
  br label %40

40:                                               ; preds = %39, %2
  call void @llvm.lifetime.end.p0(i64 8, ptr %5) #19
  ret void
}

; Function Attrs: mustprogress uwtable
define internal noundef nonnull align 8 dereferenceable(44) ptr @_ZN12_GLOBAL__N_116itanium_demangle12OutputBufferpLEc(ptr noundef nonnull align 8 dereferenceable(44) %0, i8 noundef signext %1) #3 align 2 {
  %3 = alloca ptr, align 8
  %4 = alloca i8, align 1
  store ptr %0, ptr %3, align 8, !tbaa !226
  store i8 %1, ptr %4, align 1, !tbaa !234
  %5 = load ptr, ptr %3, align 8
  call void @_ZN12_GLOBAL__N_116itanium_demangle12OutputBuffer4growEm(ptr noundef nonnull align 8 dereferenceable(44) %5, i64 noundef 1)
  %6 = load i8, ptr %4, align 1, !tbaa !234
  %7 = getelementptr inbounds nuw %"class.(anonymous namespace)::itanium_demangle::OutputBuffer", ptr %5, i32 0, i32 1
  %8 = load ptr, ptr %7, align 8, !tbaa !235
  %9 = getelementptr inbounds nuw %"class.(anonymous namespace)::itanium_demangle::OutputBuffer", ptr %5, i32 0, i32 2
  %10 = load i64, ptr %9, align 8, !tbaa !237
  %11 = add i64 %10, 1
  store i64 %11, ptr %9, align 8, !tbaa !237
  %12 = getelementptr inbounds nuw i8, ptr %8, i64 %10
  store i8 %6, ptr %12, align 1, !tbaa !234
  ret ptr %5
}

; Function Attrs: mustprogress uwtable
define internal void @_ZN12_GLOBAL__N_116itanium_demangle12OutputBuffer10printCloseEc(ptr noundef nonnull align 8 dereferenceable(44) %0, i8 noundef signext %1) #3 align 2 {
  %3 = alloca ptr, align 8
  %4 = alloca i8, align 1
  store ptr %0, ptr %3, align 8, !tbaa !226
  store i8 %1, ptr %4, align 1, !tbaa !234
  %5 = load ptr, ptr %3, align 8
  %6 = getelementptr inbounds nuw %"class.(anonymous namespace)::itanium_demangle::OutputBuffer", ptr %5, i32 0, i32 6
  %7 = load i32, ptr %6, align 8, !tbaa !275
  %8 = add i32 %7, -1
  store i32 %8, ptr %6, align 8, !tbaa !275
  %9 = load i8, ptr %4, align 1, !tbaa !234
  %10 = call noundef nonnull align 8 dereferenceable(44) ptr @_ZN12_GLOBAL__N_116itanium_demangle12OutputBufferpLEc(ptr noundef nonnull align 8 dereferenceable(44) %5, i8 noundef signext %9)
  ret void
}

; Function Attrs: mustprogress uwtable
define internal void @_ZNK12_GLOBAL__N_116itanium_demangle4Node5printERNS0_12OutputBufferE(ptr noundef nonnull align 8 dereferenceable(11) %0, ptr noundef nonnull align 8 dereferenceable(44) %1) #3 align 2 {
  %3 = alloca ptr, align 8
  %4 = alloca ptr, align 8
  store ptr %0, ptr %3, align 8, !tbaa !4
  store ptr %1, ptr %4, align 8, !tbaa !226
  %5 = load ptr, ptr %3, align 8
  %6 = load ptr, ptr %4, align 8, !tbaa !226
  %7 = load ptr, ptr %6, align 8, !tbaa !232
  %8 = getelementptr inbounds ptr, ptr %7, i64 2
  %9 = load ptr, ptr %8, align 8
  call void %9(ptr noundef nonnull align 8 dereferenceable(44) %6, ptr noundef nonnull align 8 dereferenceable(11) %5)
  %10 = getelementptr inbounds nuw %"class.(anonymous namespace)::itanium_demangle::Node", ptr %5, i32 0, i32 2
  %11 = load i16, ptr %10, align 1
  %12 = lshr i16 %11, 6
  %13 = and i16 %12, 3
  %14 = trunc i16 %13 to i8
  %15 = icmp ne i8 %14, 1
  br i1 %15, label %16, label %21

16:                                               ; preds = %2
  %17 = load ptr, ptr %4, align 8, !tbaa !226
  %18 = load ptr, ptr %17, align 8, !tbaa !232
  %19 = getelementptr inbounds ptr, ptr %18, i64 3
  %20 = load ptr, ptr %19, align 8
  call void %20(ptr noundef nonnull align 8 dereferenceable(44) %17, ptr noundef nonnull align 8 dereferenceable(11) %5)
  br label %21

21:                                               ; preds = %16, %2
  ret void
}

; Function Attrs: mustprogress uwtable
define internal void @_ZN12_GLOBAL__N_116itanium_demangle12OutputBuffer9printOpenEc(ptr noundef nonnull align 8 dereferenceable(44) %0, i8 noundef signext %1) #3 align 2 {
  %3 = alloca ptr, align 8
  %4 = alloca i8, align 1
  store ptr %0, ptr %3, align 8, !tbaa !226
  store i8 %1, ptr %4, align 1, !tbaa !234
  %5 = load ptr, ptr %3, align 8
  %6 = getelementptr inbounds nuw %"class.(anonymous namespace)::itanium_demangle::OutputBuffer", ptr %5, i32 0, i32 6
  %7 = load i32, ptr %6, align 8, !tbaa !275
  %8 = add i32 %7, 1
  store i32 %8, ptr %6, align 8, !tbaa !275
  %9 = load i8, ptr %4, align 1, !tbaa !234
  %10 = call noundef nonnull align 8 dereferenceable(44) ptr @_ZN12_GLOBAL__N_116itanium_demangle12OutputBufferpLEc(ptr noundef nonnull align 8 dereferenceable(44) %5, i8 noundef signext %9)
  ret void
}

; Function Attrs: mustprogress uwtable
define internal void @_ZNK12_GLOBAL__N_116itanium_demangle14ConversionExpr9printLeftERNS0_12OutputBufferE(ptr noundef nonnull align 8 dereferenceable(40) %0, ptr noundef nonnull align 8 dereferenceable(44) %1) unnamed_addr #3 align 2 {
  %3 = alloca ptr, align 8
  %4 = alloca ptr, align 8
  store ptr %0, ptr %3, align 8, !tbaa !154
  store ptr %1, ptr %4, align 8, !tbaa !226
  %5 = load ptr, ptr %3, align 8
  %6 = load ptr, ptr %4, align 8, !tbaa !226
  call void @_ZN12_GLOBAL__N_116itanium_demangle12OutputBuffer9printOpenEc(ptr noundef nonnull align 8 dereferenceable(44) %6, i8 noundef signext 40)
  %7 = getelementptr inbounds nuw %"class.(anonymous namespace)::itanium_demangle::ConversionExpr", ptr %5, i32 0, i32 1
  %8 = load ptr, ptr %7, align 8, !tbaa !646
  %9 = load ptr, ptr %4, align 8, !tbaa !226
  call void @_ZNK12_GLOBAL__N_116itanium_demangle4Node5printERNS0_12OutputBufferE(ptr noundef nonnull align 8 dereferenceable(11) %8, ptr noundef nonnull align 8 dereferenceable(44) %9)
  %10 = load ptr, ptr %4, align 8, !tbaa !226
  call void @_ZN12_GLOBAL__N_116itanium_demangle12OutputBuffer10printCloseEc(ptr noundef nonnull align 8 dereferenceable(44) %10, i8 noundef signext 41)
  %11 = load ptr, ptr %4, align 8, !tbaa !226
  call void @_ZN12_GLOBAL__N_116itanium_demangle12OutputBuffer9printOpenEc(ptr noundef nonnull align 8 dereferenceable(44) %11, i8 noundef signext 40)
  %12 = getelementptr inbounds nuw %"class.(anonymous namespace)::itanium_demangle::ConversionExpr", ptr %5, i32 0, i32 2
  %13 = load ptr, ptr %4, align 8, !tbaa !226
  call void @_ZNK12_GLOBAL__N_116itanium_demangle9NodeArray14printWithCommaERNS0_12OutputBufferE(ptr noundef nonnull align 8 dereferenceable(16) %12, ptr noundef nonnull align 8 dereferenceable(44) %13)
  %14 = load ptr, ptr %4, align 8, !tbaa !226
  call void @_ZN12_GLOBAL__N_116itanium_demangle12OutputBuffer10printCloseEc(ptr noundef nonnull align 8 dereferenceable(44) %14, i8 noundef signext 41)
  ret void
}