; Function Attrs: mustprogress uwtable
define internal void @_ZNK12_GLOBAL__N_116itanium_demangle14ConversionExpr9printLeftERNS0_12OutputBufferE(ptr noundef nonnull readonly align 8 captures(none) dereferenceable(40) %0, ptr noundef nonnull align 8 dereferenceable(44) %1) unnamed_addr #2 align 2 {
  %3 = getelementptr inbounds nuw i8, ptr %1, i64 40
  %4 = load i32, ptr %3, align 8, !tbaa !228
  %5 = add i32 %4, 1
  store i32 %5, ptr %3, align 8, !tbaa !228
  %6 = getelementptr inbounds nuw i8, ptr %1, i64 16
  %7 = load i64, ptr %6, align 8, !tbaa !224
  %8 = add i64 %7, 1
  %9 = getelementptr inbounds nuw i8, ptr %1, i64 24
  %10 = load i64, ptr %9, align 8, !tbaa !225
  %11 = icmp ugt i64 %8, %10
  br i1 %11, label %12, label %._ZN12_GLOBAL__N_116itanium_demangle12OutputBuffer4growEm.exit_crit_edge.i.i

._ZN12_GLOBAL__N_116itanium_demangle12OutputBuffer4growEm.exit_crit_edge.i.i: ; preds = %2
  %.phi.trans.insert.i.i = getelementptr inbounds nuw i8, ptr %1, i64 8
  %.pre.i.i = load ptr, ptr %.phi.trans.insert.i.i, align 8, !tbaa !222
  br label %_ZN12_GLOBAL__N_116itanium_demangle12OutputBuffer9printOpenEc.exit

12:                                               ; preds = %2
  %13 = add i64 %7, 993
  %14 = shl i64 %10, 1
  %spec.select.i.i.i = tail call i64 @llvm.umax.i64(i64 %14, i64 %13)
  store i64 %spec.select.i.i.i, ptr %9, align 8, !tbaa !225
  %15 = getelementptr inbounds nuw i8, ptr %1, i64 8
  %16 = load ptr, ptr %15, align 8, !tbaa !222
  %17 = tail call ptr @realloc(ptr noundef %16, i64 noundef %spec.select.i.i.i) #34
  store ptr %17, ptr %15, align 8, !tbaa !222
  %18 = icmp eq ptr %17, null
  br i1 %18, label %19, label %._ZN12_GLOBAL__N_116itanium_demangle12OutputBuffer4growEm.exit_crit_edge1.i.i

._ZN12_GLOBAL__N_116itanium_demangle12OutputBuffer4growEm.exit_crit_edge1.i.i: ; preds = %12
  %.pre2.i.i = load i64, ptr %6, align 8, !tbaa !224
  %.pre3.i.i = add i64 %.pre2.i.i, 1
  br label %_ZN12_GLOBAL__N_116itanium_demangle12OutputBuffer9printOpenEc.exit

19:                                               ; preds = %12
  tail call void @abort() #33
  unreachable

_ZN12_GLOBAL__N_116itanium_demangle12OutputBuffer9printOpenEc.exit: ; preds = %._ZN12_GLOBAL__N_116itanium_demangle12OutputBuffer4growEm.exit_crit_edge.i.i, %._ZN12_GLOBAL__N_116itanium_demangle12OutputBuffer4growEm.exit_crit_edge1.i.i
  %.pre-phi.i.i = phi i64 [ %.pre3.i.i, %._ZN12_GLOBAL__N_116itanium_demangle12OutputBuffer4growEm.exit_crit_edge1.i.i ], [ %8, %._ZN12_GLOBAL__N_116itanium_demangle12OutputBuffer4growEm.exit_crit_edge.i.i ]
  %20 = phi i64 [ %.pre2.i.i, %._ZN12_GLOBAL__N_116itanium_demangle12OutputBuffer4growEm.exit_crit_edge1.i.i ], [ %7, %._ZN12_GLOBAL__N_116itanium_demangle12OutputBuffer4growEm.exit_crit_edge.i.i ]
  %21 = phi ptr [ %17, %._ZN12_GLOBAL__N_116itanium_demangle12OutputBuffer4growEm.exit_crit_edge1.i.i ], [ %.pre.i.i, %._ZN12_GLOBAL__N_116itanium_demangle12OutputBuffer4growEm.exit_crit_edge.i.i ]
  store i64 %.pre-phi.i.i, ptr %6, align 8, !tbaa !224
  %22 = getelementptr inbounds nuw i8, ptr %21, i64 %20
  store i8 40, ptr %22, align 1, !tbaa !210
  %23 = getelementptr inbounds nuw i8, ptr %0, i64 16
  %24 = load ptr, ptr %23, align 8, !tbaa !396
  %25 = load ptr, ptr %1, align 8, !tbaa !214
  %26 = getelementptr inbounds nuw i8, ptr %25, i64 16
  %27 = load ptr, ptr %26, align 8
  tail call void %27(ptr noundef nonnull align 8 dereferenceable(44) %1, ptr noundef nonnull align 8 dereferenceable(11) %24)
  %28 = getelementptr inbounds nuw i8, ptr %24, i64 9
  %29 = load i16, ptr %28, align 1
  %.mask3.i = and i16 %29, 192
  %.not.i = icmp eq i16 %.mask3.i, 64
  br i1 %.not.i, label %_ZNK12_GLOBAL__N_116itanium_demangle4Node5printERNS0_12OutputBufferE.exit, label %30

30:                                               ; preds = %_ZN12_GLOBAL__N_116itanium_demangle12OutputBuffer9printOpenEc.exit
  %31 = load ptr, ptr %1, align 8, !tbaa !214
  %32 = getelementptr inbounds nuw i8, ptr %31, i64 24
  %33 = load ptr, ptr %32, align 8
  tail call void %33(ptr noundef nonnull align 8 dereferenceable(44) %1, ptr noundef nonnull align 8 dereferenceable(11) %24)
  br label %_ZNK12_GLOBAL__N_116itanium_demangle4Node5printERNS0_12OutputBufferE.exit

_ZNK12_GLOBAL__N_116itanium_demangle4Node5printERNS0_12OutputBufferE.exit: ; preds = %_ZN12_GLOBAL__N_116itanium_demangle12OutputBuffer9printOpenEc.exit, %30
  %34 = load i32, ptr %3, align 8, !tbaa !228
  %35 = add i32 %34, -1
  store i32 %35, ptr %3, align 8, !tbaa !228
  %36 = load i64, ptr %6, align 8, !tbaa !224
  %37 = add i64 %36, 1
  %38 = load i64, ptr %9, align 8, !tbaa !225
  %39 = icmp ugt i64 %37, %38
  br i1 %39, label %40, label %._ZN12_GLOBAL__N_116itanium_demangle12OutputBuffer4growEm.exit_crit_edge.i.i7

._ZN12_GLOBAL__N_116itanium_demangle12OutputBuffer4growEm.exit_crit_edge.i.i7: ; preds = %_ZNK12_GLOBAL__N_116itanium_demangle4Node5printERNS0_12OutputBufferE.exit
  %.phi.trans.insert.i.i8 = getelementptr inbounds nuw i8, ptr %1, i64 8
  %.pre.i.i9 = load ptr, ptr %.phi.trans.insert.i.i8, align 8, !tbaa !222
  br label %_ZN12_GLOBAL__N_116itanium_demangle12OutputBuffer10printCloseEc.exit

40:                                               ; preds = %_ZNK12_GLOBAL__N_116itanium_demangle4Node5printERNS0_12OutputBufferE.exit
  %41 = add i64 %36, 993
  %42 = shl i64 %38, 1
  %spec.select.i.i.i11 = tail call i64 @llvm.umax.i64(i64 %42, i64 %41)
  store i64 %spec.select.i.i.i11, ptr %9, align 8, !tbaa !225
  %43 = getelementptr inbounds nuw i8, ptr %1, i64 8
  %44 = load ptr, ptr %43, align 8, !tbaa !222
  %45 = tail call ptr @realloc(ptr noundef %44, i64 noundef %spec.select.i.i.i11) #34
  store ptr %45, ptr %43, align 8, !tbaa !222
  %46 = icmp eq ptr %45, null
  br i1 %46, label %47, label %._ZN12_GLOBAL__N_116itanium_demangle12OutputBuffer4growEm.exit_crit_edge1.i.i12

._ZN12_GLOBAL__N_116itanium_demangle12OutputBuffer4growEm.exit_crit_edge1.i.i12: ; preds = %40
  %.pre2.i.i13 = load i64, ptr %6, align 8, !tbaa !224
  %.pre3.i.i14 = add i64 %.pre2.i.i13, 1
  br label %_ZN12_GLOBAL__N_116itanium_demangle12OutputBuffer10printCloseEc.exit

47:                                               ; preds = %40
  tail call void @abort() #33
  unreachable

_ZN12_GLOBAL__N_116itanium_demangle12OutputBuffer10printCloseEc.exit: ; preds = %._ZN12_GLOBAL__N_116itanium_demangle12OutputBuffer4growEm.exit_crit_edge.i.i7, %._ZN12_GLOBAL__N_116itanium_demangle12OutputBuffer4growEm.exit_crit_edge1.i.i12
  %.pre-phi.i.i10 = phi i64 [ %.pre3.i.i14, %._ZN12_GLOBAL__N_116itanium_demangle12OutputBuffer4growEm.exit_crit_edge1.i.i12 ], [ %37, %._ZN12_GLOBAL__N_116itanium_demangle12OutputBuffer4growEm.exit_crit_edge.i.i7 ]
  %48 = phi i64 [ %.pre2.i.i13, %._ZN12_GLOBAL__N_116itanium_demangle12OutputBuffer4growEm.exit_crit_edge1.i.i12 ], [ %36, %._ZN12_GLOBAL__N_116itanium_demangle12OutputBuffer4growEm.exit_crit_edge.i.i7 ]
  %49 = phi ptr [ %45, %._ZN12_GLOBAL__N_116itanium_demangle12OutputBuffer4growEm.exit_crit_edge1.i.i12 ], [ %.pre.i.i9, %._ZN12_GLOBAL__N_116itanium_demangle12OutputBuffer4growEm.exit_crit_edge.i.i7 ]
  store i64 %.pre-phi.i.i10, ptr %6, align 8, !tbaa !224
  %50 = getelementptr inbounds nuw i8, ptr %49, i64 %48
  store i8 41, ptr %50, align 1, !tbaa !210
  %51 = load i32, ptr %3, align 8, !tbaa !228
  %52 = add i32 %51, 1
  store i32 %52, ptr %3, align 8, !tbaa !228
  %53 = load i64, ptr %6, align 8, !tbaa !224
  %54 = add i64 %53, 1
  %55 = load i64, ptr %9, align 8, !tbaa !225
  %56 = icmp ugt i64 %54, %55
  br i1 %56, label %57, label %._ZN12_GLOBAL__N_116itanium_demangle12OutputBuffer4growEm.exit_crit_edge.i.i15

._ZN12_GLOBAL__N_116itanium_demangle12OutputBuffer4growEm.exit_crit_edge.i.i15: ; preds = %_ZN12_GLOBAL__N_116itanium_demangle12OutputBuffer10printCloseEc.exit
  %.phi.trans.insert.i.i16 = getelementptr inbounds nuw i8, ptr %1, i64 8
  %.pre.i.i17 = load ptr, ptr %.phi.trans.insert.i.i16, align 8, !tbaa !222
  br label %_ZN12_GLOBAL__N_116itanium_demangle12OutputBuffer9printOpenEc.exit23

57:                                               ; preds = %_ZN12_GLOBAL__N_116itanium_demangle12OutputBuffer10printCloseEc.exit
  %58 = add i64 %53, 993
  %59 = shl i64 %55, 1
  %spec.select.i.i.i19 = tail call i64 @llvm.umax.i64(i64 %59, i64 %58)
  store i64 %spec.select.i.i.i19, ptr %9, align 8, !tbaa !225
  %60 = getelementptr inbounds nuw i8, ptr %1, i64 8
  %61 = load ptr, ptr %60, align 8, !tbaa !222
  %62 = tail call ptr @realloc(ptr noundef %61, i64 noundef %spec.select.i.i.i19) #34
  store ptr %62, ptr %60, align 8, !tbaa !222
  %63 = icmp eq ptr %62, null
  br i1 %63, label %64, label %._ZN12_GLOBAL__N_116itanium_demangle12OutputBuffer4growEm.exit_crit_edge1.i.i20

._ZN12_GLOBAL__N_116itanium_demangle12OutputBuffer4growEm.exit_crit_edge1.i.i20: ; preds = %57
  %.pre2.i.i21 = load i64, ptr %6, align 8, !tbaa !224
  %.pre3.i.i22 = add i64 %.pre2.i.i21, 1
  br label %_ZN12_GLOBAL__N_116itanium_demangle12OutputBuffer9printOpenEc.exit23

64:                                               ; preds = %57
  tail call void @abort() #33
  unreachable

_ZN12_GLOBAL__N_116itanium_demangle12OutputBuffer9printOpenEc.exit23: ; preds = %._ZN12_GLOBAL__N_116itanium_demangle12OutputBuffer4growEm.exit_crit_edge.i.i15, %._ZN12_GLOBAL__N_116itanium_demangle12OutputBuffer4growEm.exit_crit_edge1.i.i20
  %.pre-phi.i.i18 = phi i64 [ %.pre3.i.i22, %._ZN12_GLOBAL__N_116itanium_demangle12OutputBuffer4growEm.exit_crit_edge1.i.i20 ], [ %54, %._ZN12_GLOBAL__N_116itanium_demangle12OutputBuffer4growEm.exit_crit_edge.i.i15 ]
  %65 = phi i64 [ %.pre2.i.i21, %._ZN12_GLOBAL__N_116itanium_demangle12OutputBuffer4growEm.exit_crit_edge1.i.i20 ], [ %53, %._ZN12_GLOBAL__N_116itanium_demangle12OutputBuffer4growEm.exit_crit_edge.i.i15 ]
  %66 = phi ptr [ %62, %._ZN12_GLOBAL__N_116itanium_demangle12OutputBuffer4growEm.exit_crit_edge1.i.i20 ], [ %.pre.i.i17, %._ZN12_GLOBAL__N_116itanium_demangle12OutputBuffer4growEm.exit_crit_edge.i.i15 ]
  store i64 %.pre-phi.i.i18, ptr %6, align 8, !tbaa !224
  %67 = getelementptr inbounds nuw i8, ptr %66, i64 %65
  store i8 40, ptr %67, align 1, !tbaa !210
  %68 = getelementptr inbounds nuw i8, ptr %0, i64 24
  tail call fastcc void @_ZNK12_GLOBAL__N_116itanium_demangle9NodeArray14printWithCommaERNS0_12OutputBufferE(ptr noundef nonnull align 8 dereferenceable(16) %68, ptr noundef nonnull align 8 dereferenceable(44) %1)
  %69 = load i32, ptr %3, align 8, !tbaa !228
  %70 = add i32 %69, -1
  store i32 %70, ptr %3, align 8, !tbaa !228
  %71 = load i64, ptr %6, align 8, !tbaa !224
  %72 = add i64 %71, 1
  %73 = load i64, ptr %9, align 8, !tbaa !225
  %74 = icmp ugt i64 %72, %73
  br i1 %74, label %75, label %._ZN12_GLOBAL__N_116itanium_demangle12OutputBuffer4growEm.exit_crit_edge.i.i24

._ZN12_GLOBAL__N_116itanium_demangle12OutputBuffer4growEm.exit_crit_edge.i.i24: ; preds = %_ZN12_GLOBAL__N_116itanium_demangle12OutputBuffer9printOpenEc.exit23
  %.phi.trans.insert.i.i25 = getelementptr inbounds nuw i8, ptr %1, i64 8
  %.pre.i.i26 = load ptr, ptr %.phi.trans.insert.i.i25, align 8, !tbaa !222
  br label %_ZN12_GLOBAL__N_116itanium_demangle12OutputBuffer10printCloseEc.exit32

75:                                               ; preds = %_ZN12_GLOBAL__N_116itanium_demangle12OutputBuffer9printOpenEc.exit23
  %76 = add i64 %71, 993
  %77 = shl i64 %73, 1
  %spec.select.i.i.i28 = tail call i64 @llvm.umax.i64(i64 %77, i64 %76)
  store i64 %spec.select.i.i.i28, ptr %9, align 8, !tbaa !225
  %78 = getelementptr inbounds nuw i8, ptr %1, i64 8
  %79 = load ptr, ptr %78, align 8, !tbaa !222
  %80 = tail call ptr @realloc(ptr noundef %79, i64 noundef %spec.select.i.i.i28) #34
  store ptr %80, ptr %78, align 8, !tbaa !222
  %81 = icmp eq ptr %80, null
  br i1 %81, label %82, label %._ZN12_GLOBAL__N_116itanium_demangle12OutputBuffer4growEm.exit_crit_edge1.i.i29

._ZN12_GLOBAL__N_116itanium_demangle12OutputBuffer4growEm.exit_crit_edge1.i.i29: ; preds = %75
  %.pre2.i.i30 = load i64, ptr %6, align 8, !tbaa !224
  %.pre3.i.i31 = add i64 %.pre2.i.i30, 1
  br label %_ZN12_GLOBAL__N_116itanium_demangle12OutputBuffer10printCloseEc.exit32

82:                                               ; preds = %75
  tail call void @abort() #33
  unreachable

_ZN12_GLOBAL__N_116itanium_demangle12OutputBuffer10printCloseEc.exit32: ; preds = %._ZN12_GLOBAL__N_116itanium_demangle12OutputBuffer4growEm.exit_crit_edge.i.i24, %._ZN12_GLOBAL__N_116itanium_demangle12OutputBuffer4growEm.exit_crit_edge1.i.i29
  %.pre-phi.i.i27 = phi i64 [ %.pre3.i.i31, %._ZN12_GLOBAL__N_116itanium_demangle12OutputBuffer4growEm.exit_crit_edge1.i.i29 ], [ %72, %._ZN12_GLOBAL__N_116itanium_demangle12OutputBuffer4growEm.exit_crit_edge.i.i24 ]
  %83 = phi i64 [ %.pre2.i.i30, %._ZN12_GLOBAL__N_116itanium_demangle12OutputBuffer4growEm.exit_crit_edge1.i.i29 ], [ %71, %._ZN12_GLOBAL__N_116itanium_demangle12OutputBuffer4growEm.exit_crit_edge.i.i24 ]
  %84 = phi ptr [ %80, %._ZN12_GLOBAL__N_116itanium_demangle12OutputBuffer4growEm.exit_crit_edge1.i.i29 ], [ %.pre.i.i26, %._ZN12_GLOBAL__N_116itanium_demangle12OutputBuffer4growEm.exit_crit_edge.i.i24 ]
  store i64 %.pre-phi.i.i27, ptr %6, align 8, !tbaa !224
  %85 = getelementptr inbounds nuw i8, ptr %84, i64 %83
  store i8 41, ptr %85, align 1, !tbaa !210
  ret void
}